(lp1
(dp2
S'ZoneMode'
p3
I0
sS'Name'
p4
S'BackFromHome'
p5
sS'Zone'
p6
S'-'
sS'TempMode'
p7
I1
sS'HVACmode'
p8
I1
sS'Time'
p9
S'15:00'
p10
sS'Temp'
p11
I72
sS'Day'
p12
I0
sa(dp13
g3
I0
sg4
S'ToClass'
p14
sg6
S'-'
sg7
I1
sg8
I1
sg9
S'17:35'
p15
sg11
I78
sg12
I0
sa(dp16
g3
I0
sg4
S'BackFromClass'
p17
sg6
S'-'
sg7
I1
sg8
I1
sg9
S'21:40'
p18
sg11
I74
sg12
I0
sa(dp19
g3
I0
sg4
S'ToSleep'
p20
sg6
S'-'
sg7
I1
sg8
I1
sg9
S'02:00'
p21
sg11
I75
sg12
I1
sa(dp22
g3
I0
sg4
g5
sg6
S'-'
sg7
I1
sg8
I1
sg9
S'08:20'
p23
sg11
I73
sg12
I1
sa(dp24
g3
I0
sg4
S'ToWork'
p25
sg6
S'-'
sg7
I1
sg8
I1
sg9
S'08:45'
p26
sg11
I80
sg12
I1
sa(dp27
g3
I0
sg4
S'BackFromWork'
p28
sg6
S'-'
sg7
I1
sg8
I1
sg9
S'17:00'
p29
sg11
I76
sg12
I1
sa(dp30
g3
I0
sg4
g14
sg6
S'-'
sg7
I1
sg8
I1
sg9
g15
sg11
I78
sg12
I1
sa(dp31
g3
I0
sg4
g17
sg6
S'-'
sg7
I1
sg8
I1
sg9
g18
sg11
I74
sg12
I1
sa(dp32
g3
I0
sg4
g20
sg6
S'-'
sg7
I1
sg8
I1
sg9
g21
sg11
I75
sg12
I2
sa(dp33
g3
I0
sg4
g5
sg6
S'-'
sg7
I1
sg8
I1
sg9
g23
sg11
I73
sg12
I2
sa(dp34
g3
I0
sg4
g25
sg6
S'-'
sg7
I1
sg8
I1
sg9
g26
sg11
I80
sg12
I2
sa(dp35
g3
I0
sg4
g28
sg6
S'-'
sg7
I1
sg8
I1
sg9
g29
sg11
I76
sg12
I2
sa(dp36
g3
I0
sg4
g14
sg6
S'-'
sg7
I1
sg8
I1
sg9
g15
sg11
I78
sg12
I2
sa(dp37
g3
I0
sg4
g17
sg6
S'-'
sg7
I1
sg8
I1
sg9
g18
sg11
I74
sg12
I2
sa(dp38
g3
I0
sg4
g20
sg6
S'-'
sg7
I1
sg8
I1
sg9
g21
sg11
I75
sg12
I3
sa(dp39
g3
I0
sg4
g5
sg6
S'-'
sg7
I1
sg8
I1
sg9
g23
sg11
I73
sg12
I3
sa(dp40
g3
I0
sg4
g25
sg6
S'-'
sg7
I1
sg8
I1
sg9
g26
sg11
I80
sg12
I3
sa(dp41
g3
I0
sg4
g28
sg6
S'-'
sg7
I1
sg8
I1
sg9
g29
sg11
I76
sg12
I3
sa(dp42
g3
I0
sg4
g14
sg6
S'-'
sg7
I1
sg8
I1
sg9
g15
sg11
I78
sg12
I3
sa(dp43
g3
I0
sg4
g17
sg6
S'-'
sg7
I1
sg8
I1
sg9
g18
sg11
I74
sg12
I3
sa(dp44
g3
I0
sg4
g20
sg6
S'-'
sg7
I1
sg8
I1
sg9
g21
sg11
I75
sg12
I4
sa(dp45
g3
I0
sg4
g5
sg6
S'-'
sg7
I1
sg8
I1
sg9
g23
sg11
I73
sg12
I4
sa(dp46
g3
I0
sg4
g25
sg6
S'-'
sg7
I1
sg8
I1
sg9
g26
sg11
I80
sg12
I4
sa(dp47
g3
I0
sg4
g28
sg6
S'-'
sg7
I1
sg8
I1
sg9
g29
sg11
I76
sg12
I4
sa(dp48
g3
I0
sg4
g14
sg6
S'-'
sg7
I1
sg8
I1
sg9
g15
sg11
I78
sg12
I4
sa(dp49
g3
I0
sg4
g17
sg6
S'-'
sg7
I1
sg8
I1
sg9
g18
sg11
I74
sg12
I4
sa(dp50
g3
I0
sg4
g20
sg6
S'-'
sg7
I1
sg8
I1
sg9
g21
sg11
I75
sg12
I5
sa(dp51
g3
I0
sg4
g5
sg6
S'-'
sg7
I1
sg8
I1
sg9
g23
sg11
I73
sg12
I5
sa(dp52
g3
I0
sg4
S'GoneForWeekend'
p53
sg6
S'-'
sg7
I1
sg8
I1
sg9
S'18:00'
p54
sg11
I84
sg12
I5
sa.