(lp1
(dp2
S'Name'
p3
S'BackFromHome'
p4
sS'Temp'
p5
I72
sS'ZoneMode'
p6
I0
sS'TempMode'
p7
I1
sS'Zone'
p8
NsS'HVACmode'
p9
I1
sS'Time'
p10
S'15:00'
p11
sS'Day'
p12
I0
sa(dp13
g3
S'ToClass'
p14
sg5
I78
sg6
I0
sg7
I1
sg8
Nsg9
I1
sg10
S'17:35'
p15
sg12
I0
sa(dp16
g3
S'BackFromClass'
p17
sg5
I74
sg6
I0
sg7
I1
sg8
Nsg9
I1
sg10
S'21:40'
p18
sg12
I0
sa(dp19
g3
S'ToSleep'
p20
sg5
I75
sg6
I0
sg7
I1
sg8
Nsg9
I1
sg10
S'02:00'
p21
sg12
I1
sa(dp22
g3
g4
sg5
I73
sg6
I0
sg7
I1
sg8
Nsg9
I1
sg10
S'08:20'
p23
sg12
I1
sa(dp24
g3
S'ToWork'
p25
sg5
I80
sg6
I0
sg7
I1
sg8
Nsg9
I1
sg10
S'08:45'
p26
sg12
I1
sa(dp27
g3
S'BackFromWork'
p28
sg5
I76
sg6
I0
sg7
I1
sg8
Nsg9
I1
sg10
S'17:00'
p29
sg12
I1
sa(dp30
g3
g14
sg5
I78
sg6
I0
sg7
I1
sg8
Nsg9
I1
sg10
g15
sg12
I1
sa(dp31
g3
g17
sg5
I74
sg6
I0
sg7
I1
sg8
Nsg9
I1
sg10
g18
sg12
I1
sa(dp32
g3
g20
sg5
I75
sg6
I0
sg7
I1
sg8
Nsg9
I1
sg10
g21
sg12
I2
sa(dp33
g3
g4
sg5
I73
sg6
I0
sg7
I1
sg8
Nsg9
I1
sg10
g23
sg12
I2
sa(dp34
g3
g25
sg5
I80
sg6
I0
sg7
I1
sg8
Nsg9
I1
sg10
g26
sg12
I2
sa(dp35
g3
g28
sg5
I76
sg6
I0
sg7
I1
sg8
Nsg9
I1
sg10
g29
sg12
I2
sa(dp36
g3
g14
sg5
I78
sg6
I0
sg7
I1
sg8
Nsg9
I1
sg10
g15
sg12
I2
sa(dp37
g3
g17
sg5
I74
sg6
I0
sg7
I1
sg8
Nsg9
I1
sg10
g18
sg12
I2
sa(dp38
g3
g20
sg5
I75
sg6
I0
sg7
I1
sg8
Nsg9
I1
sg10
g21
sg12
I3
sa(dp39
g3
g4
sg5
I73
sg6
I0
sg7
I1
sg8
Nsg9
I1
sg10
g23
sg12
I3
sa(dp40
g3
g25
sg5
I80
sg6
I0
sg7
I1
sg8
Nsg9
I1
sg10
g26
sg12
I3
sa(dp41
g3
g28
sg5
I76
sg6
I0
sg7
I1
sg8
Nsg9
I1
sg10
g29
sg12
I3
sa(dp42
g3
g14
sg5
I78
sg6
I0
sg7
I1
sg8
Nsg9
I1
sg10
g15
sg12
I3
sa(dp43
g3
g17
sg5
I74
sg6
I0
sg7
I1
sg8
Nsg9
I1
sg10
g18
sg12
I3
sa(dp44
g3
g20
sg5
I75
sg6
I0
sg7
I1
sg8
Nsg9
I1
sg10
g21
sg12
I4
sa(dp45
g3
g4
sg5
I73
sg6
I0
sg7
I1
sg8
Nsg9
I1
sg10
g23
sg12
I4
sa(dp46
g3
g25
sg5
I80
sg6
I0
sg7
I1
sg8
Nsg9
I1
sg10
g26
sg12
I4
sa(dp47
g3
g28
sg5
I76
sg6
I0
sg7
I1
sg8
Nsg9
I1
sg10
g29
sg12
I4
sa(dp48
g3
g14
sg5
I78
sg6
I0
sg7
I1
sg8
Nsg9
I1
sg10
g15
sg12
I4
sa(dp49
g3
g17
sg5
I74
sg6
I0
sg7
I1
sg8
Nsg9
I1
sg10
g18
sg12
I4
sa(dp50
g3
g20
sg5
I75
sg6
I0
sg7
I1
sg8
Nsg9
I1
sg10
g21
sg12
I5
sa(dp51
g3
g4
sg5
I73
sg6
I0
sg7
I1
sg8
Nsg9
I1
sg10
g23
sg12
I5
sa(dp52
g3
g25
sg5
I80
sg6
I0
sg7
I1
sg8
Nsg9
I1
sg10
g26
sg12
I5
sa(dp53
g3
S'GoneForWeekend'
p54
sg5
I84
sg6
I0
sg7
I1
sg8
Nsg9
I1
sg10
S'18:00'
p55
sg12
I5
sa.