(lp1
(dp2
S'Enabled'
p3
I01
sS'Name'
p4
S'JA-BR'
p5
sS'ID'
p6
S'10.34E30F010800'
p7
sa(dp8
S'Enabled'
p9
I01
sS'Name'
p10
S'LR'
p11
sS'ID'
p12
S'10.96F70F010800'
p13
sa(dp14
g9
I01
sg10
S'JA-BR-VENT'
p15
sg12
S'10.6DD40F010800'
p16
sa.